; Function Attrs: mustprogress uwtable
define hidden void @_ZN4cvc58internal4prop11TheoryProxy10removeItesENS0_12NodeTemplateILb0EEERSt6vectorINS0_6theory11SkolemLemmaESaIS7_EE(ptr dead_on_unwind noalias writable sret(%"class.cvc5::internal::TrustNode") align 8 %0, ptr noundef nonnull align 8 dereferenceable(521) %1, ptr noundef readonly captures(none) %2, ptr noundef nonnull align 1 %3) local_unnamed_addr #4 align 2 personality ptr @__gxx_personality_v0 {
  %5 = alloca %"class.cvc5::internal::NodeTemplate.479", align 8
  %6 = getelementptr inbounds nuw i8, ptr %1, i64 160
  %7 = tail call noundef nonnull align 8 dereferenceable(160) ptr @_ZN4cvc58internal6theory18TheoryPreprocessor21getRemoveTermFormulasEv(ptr noundef nonnull align 8 dereferenceable(280) %6)
  %8 = load ptr, ptr %2, align 8, !tbaa !383
  store ptr %8, ptr %5, align 8, !tbaa !383
  call void @_ZN4cvc58internal18RemoveTermFormulas3runENS0_12NodeTemplateILb0EEERSt6vectorINS0_6theory11SkolemLemmaESaIS6_EEb(ptr dead_on_unwind writable sret(%"class.cvc5::internal::TrustNode") align 8 %0, ptr noundef nonnull align 8 dereferenceable(160) %7, ptr noundef nonnull %5, ptr noundef nonnull align 1 %3, i1 noundef zeroext true)
  ret void
}